target datalayout = "e-m:e-p270:32:32-p271:32:32-p272:64:64-i64:64-i128:128-f80:128-n8:16:32:64-S128"
target triple = "x86_64-pc-linux-gnu"

%struct.GCRef = type { i64 }
%struct.lua_State = type { %struct.GCRef, i8, i8, i8, i8, %struct.MRef, %struct.GCRef, ptr, ptr, %struct.MRef, %struct.MRef, %struct.GCRef, %struct.GCRef, ptr, i32 }
%struct.MRef = type { i64 }
%union.TValue = type { i64 }
%struct.global_State = type { ptr, ptr, %struct.GCState, %struct.GCstr, i8, i8, i8, i8, %struct.StrInternState, i32, %struct.GCRef, %struct.SBuf, %union.TValue, %union.TValue, %struct.Node, %union.TValue, %struct.GCupval, i32, i32, ptr, ptr, ptr, i32, i32, %struct.GCRef, %struct.MRef, %struct.MRef, %struct.PRNGState, [39 x %struct.GCRef] }
%struct.GCState = type { i64, i64, i8, i8, i8, i8, i32, %struct.GCRef, %struct.MRef, %struct.GCRef, %struct.GCRef, %struct.GCRef, %struct.GCRef, i64, i64, i32, i32, %struct.MRef }
%struct.GCstr = type { %struct.GCRef, i8, i8, i8, i8, i32, i32, i32 }
%struct.StrInternState = type { ptr, i32, i32, i32, i8, i8, i8, i8, i64 }
%struct.SBuf = type { ptr, ptr, ptr, %struct.MRef }
%struct.Node = type { %union.TValue, %union.TValue, %struct.MRef }
%struct.GCupval = type { %struct.GCRef, i8, i8, i8, i8, %union.anon, %struct.MRef, i32 }
%union.anon = type { %struct.anon.1 }
%struct.anon.1 = type { %struct.GCRef, %struct.GCRef }
%struct.PRNGState = type { [4 x i64] }
%struct.GCfuncC = type { %struct.GCRef, i8, i8, i8, i8, %struct.GCRef, %struct.GCRef, %struct.MRef, ptr, [1 x %union.TValue] }

; Function Attrs: noinline noreturn nounwind uwtable
define hidden void @lj_err_callermsg(ptr noundef %0, ptr noundef %1) #6 {
  %3 = alloca ptr, align 8
  %4 = alloca ptr, align 8
  %5 = alloca ptr, align 8
  %6 = alloca ptr, align 8
  store ptr %0, ptr %3, align 8, !tbaa !18
  store ptr %1, ptr %4, align 8, !tbaa !50
  call void @llvm.lifetime.start.p0(i64 8, ptr %5) #15
  store ptr null, ptr %5, align 8, !tbaa !25
  call void @llvm.lifetime.start.p0(i64 8, ptr %6) #15
  store ptr null, ptr %6, align 8, !tbaa !25
  %7 = load ptr, ptr %3, align 8, !tbaa !18
  %8 = getelementptr inbounds nuw %struct.lua_State, ptr %7, i32 0, i32 5
  %9 = getelementptr inbounds nuw %struct.MRef, ptr %8, i32 0, i32 0
  %10 = load i64, ptr %9, align 8, !tbaa !29
  %11 = inttoptr i64 %10 to ptr
  %12 = getelementptr inbounds nuw %struct.global_State, ptr %11, i32 0, i32 25
  %13 = getelementptr inbounds nuw %struct.MRef, ptr %12, i32 0, i32 0
  %14 = load i64, ptr %13, align 8, !tbaa !70
  %15 = inttoptr i64 %14 to ptr
  %16 = icmp ne ptr %15, null
  br i1 %16, label %104, label %17

17:                                               ; preds = %2
  %18 = load ptr, ptr %3, align 8, !tbaa !18
  %19 = getelementptr inbounds nuw %struct.lua_State, ptr %18, i32 0, i32 7
  %20 = load ptr, ptr %19, align 8, !tbaa !24
  %21 = getelementptr inbounds %union.TValue, ptr %20, i64 -1
  store ptr %21, ptr %5, align 8, !tbaa !25
  %22 = load ptr, ptr %5, align 8, !tbaa !25
  %23 = load i64, ptr %22, align 8, !tbaa !28
  %24 = and i64 %23, 3
  %25 = icmp eq i64 %24, 0
  br i1 %25, label %26, label %39

26:                                               ; preds = %17
  %27 = load ptr, ptr %5, align 8, !tbaa !25
  %28 = load ptr, ptr %5, align 8, !tbaa !25
  %29 = load i64, ptr %28, align 8, !tbaa !28
  %30 = inttoptr i64 %29 to ptr
  %31 = getelementptr inbounds i32, ptr %30, i64 -1
  %32 = load i32, ptr %31, align 4, !tbaa !4
  %33 = lshr i32 %32, 8
  %34 = and i32 %33, 255
  %35 = add i32 2, %34
  %36 = zext i32 %35 to i64
  %37 = sub i64 0, %36
  %38 = getelementptr inbounds %union.TValue, ptr %27, i64 %37
  store ptr %38, ptr %6, align 8, !tbaa !25
  br label %103

39:                                               ; preds = %17
  %40 = load ptr, ptr %5, align 8, !tbaa !25
  %41 = load i64, ptr %40, align 8, !tbaa !28
  %42 = and i64 %41, 7
  %43 = icmp eq i64 %42, 2
  br i1 %43, label %44, label %102

44:                                               ; preds = %39
  %45 = load ptr, ptr %5, align 8, !tbaa !25
  %46 = getelementptr inbounds %union.TValue, ptr %45, i64 -3
  %47 = load i64, ptr %46, align 8, !tbaa !28
  %48 = icmp eq i64 %47, 1
  br i1 %48, label %49, label %51

49:                                               ; preds = %44
  %50 = load ptr, ptr %5, align 8, !tbaa !25
  store ptr %50, ptr %6, align 8, !tbaa !25
  store ptr null, ptr %5, align 8, !tbaa !25
  br label %101

51:                                               ; preds = %44
  %52 = load ptr, ptr %5, align 8, !tbaa !25
  %53 = load ptr, ptr %5, align 8, !tbaa !25
  %54 = load i64, ptr %53, align 8, !tbaa !28
  %55 = and i64 %54, -8
  %56 = sub i64 0, %55
  %57 = getelementptr inbounds i8, ptr %52, i64 %56
  store ptr %57, ptr %6, align 8, !tbaa !25
  %58 = load ptr, ptr %5, align 8, !tbaa !25
  %59 = getelementptr inbounds %union.TValue, ptr %58, i64 -1
  %60 = getelementptr inbounds nuw %struct.GCRef, ptr %59, i32 0, i32 0
  %61 = load i64, ptr %60, align 8, !tbaa !28
  %62 = and i64 %61, 140737488355327
  %63 = inttoptr i64 %62 to ptr
  %64 = getelementptr inbounds nuw %struct.GCfuncC, ptr %63, i32 0, i32 3
  %65 = load i8, ptr %64, align 2, !tbaa !28
  %66 = zext i8 %65 to i32
  %67 = icmp sge i32 %66, 164
  br i1 %67, label %68, label %100

68:                                               ; preds = %51
  %69 = load ptr, ptr %5, align 8, !tbaa !25
  %70 = getelementptr inbounds %union.TValue, ptr %69, i64 -1
  %71 = getelementptr inbounds nuw %struct.GCRef, ptr %70, i32 0, i32 0
  %72 = load i64, ptr %71, align 8, !tbaa !28
  %73 = and i64 %72, 140737488355327
  %74 = inttoptr i64 %73 to ptr
  %75 = getelementptr inbounds nuw %struct.GCfuncC, ptr %74, i32 0, i32 3
  %76 = load i8, ptr %75, align 2, !tbaa !28
  %77 = zext i8 %76 to i32
  %78 = icmp sle i32 %77, 179
  br i1 %78, label %79, label %100

79:                                               ; preds = %68
  %80 = load ptr, ptr %6, align 8, !tbaa !25
  %81 = getelementptr inbounds %union.TValue, ptr %80, i64 1
  %82 = load ptr, ptr %3, align 8, !tbaa !18
  %83 = getelementptr inbounds nuw %struct.lua_State, ptr %82, i32 0, i32 7
  store ptr %81, ptr %83, align 8, !tbaa !24
  %84 = load ptr, ptr %5, align 8, !tbaa !25
  %85 = load ptr, ptr %3, align 8, !tbaa !18
  %86 = getelementptr inbounds nuw %struct.lua_State, ptr %85, i32 0, i32 8
  store ptr %84, ptr %86, align 8, !tbaa !20
  %87 = load ptr, ptr %5, align 8, !tbaa !25
  %88 = getelementptr inbounds %union.TValue, ptr %87, i64 -2
  %89 = load i64, ptr %88, align 8, !tbaa !28
  %90 = inttoptr i64 %89 to ptr
  %91 = ptrtoint ptr %90 to i64
  %92 = load ptr, ptr %3, align 8, !tbaa !18
  %93 = getelementptr inbounds nuw %struct.lua_State, ptr %92, i32 0, i32 13
  %94 = load ptr, ptr %93, align 8, !tbaa !26
  %95 = ptrtoint ptr %94 to i64
  %96 = and i64 %95, -4
  %97 = inttoptr i64 %96 to ptr
  %98 = getelementptr inbounds i8, ptr %97, i64 24
  %99 = getelementptr inbounds nuw %struct.MRef, ptr %98, i32 0, i32 0
  store i64 %91, ptr %99, align 8, !tbaa !82
  br label %100

100:                                              ; preds = %79, %68, %51
  br label %101

101:                                              ; preds = %100, %49
  br label %102

102:                                              ; preds = %101, %39
  br label %103

103:                                              ; preds = %102, %26
  br label %104

104:                                              ; preds = %103, %2
  %105 = load ptr, ptr %3, align 8, !tbaa !18
  %106 = load ptr, ptr %4, align 8, !tbaa !50
  %107 = load ptr, ptr %6, align 8, !tbaa !25
  %108 = load ptr, ptr %5, align 8, !tbaa !25
  call void @lj_debug_addloc(ptr noundef %105, ptr noundef %106, ptr noundef %107, ptr noundef %108)
  %109 = load ptr, ptr %3, align 8, !tbaa !18
  call void @lj_err_run(ptr noundef %109) #18
  unreachable
}