; Function Attrs: noinline noreturn nounwind uwtable
define hidden void @lj_err_callermsg(ptr noundef %0, ptr noundef %1) local_unnamed_addr #5 {
  %3 = getelementptr inbounds nuw i8, ptr %0, i64 16
  %4 = load i64, ptr %3, align 8, !tbaa !21
  %5 = inttoptr i64 %4 to ptr
  %6 = getelementptr inbounds nuw i8, ptr %5, i64 376
  %7 = load i64, ptr %6, align 8, !tbaa !59
  %.not = icmp eq i64 %7, 0
  br i1 %.not, label %8, label %54

8:                                                ; preds = %2
  %9 = getelementptr inbounds nuw i8, ptr %0, i64 32
  %10 = load ptr, ptr %9, align 8, !tbaa !15
  %11 = getelementptr inbounds i8, ptr %10, i64 -8
  %12 = load i64, ptr %11, align 8, !tbaa !18
  %13 = and i64 %12, 3
  %14 = icmp eq i64 %13, 0
  br i1 %14, label %15, label %25

15:                                               ; preds = %8
  %16 = inttoptr i64 %12 to ptr
  %17 = getelementptr inbounds i8, ptr %16, i64 -4
  %18 = load i32, ptr %17, align 4, !tbaa !17
  %19 = lshr i32 %18, 8
  %20 = and i32 %19, 255
  %21 = add nuw nsw i32 %20, 2
  %22 = zext nneg i32 %21 to i64
  %23 = sub nsw i64 0, %22
  %24 = getelementptr inbounds %union.TValue, ptr %11, i64 %23
  br label %54

25:                                               ; preds = %8
  %26 = and i64 %12, 7
  %27 = icmp eq i64 %26, 2
  br i1 %27, label %28, label %54

28:                                               ; preds = %25
  %29 = getelementptr inbounds i8, ptr %10, i64 -32
  %30 = load i64, ptr %29, align 8, !tbaa !18
  %31 = icmp eq i64 %30, 1
  br i1 %31, label %54, label %32

32:                                               ; preds = %28
  %33 = and i64 %12, -8
  %34 = sub i64 0, %33
  %35 = getelementptr inbounds i8, ptr %11, i64 %34
  %36 = getelementptr inbounds i8, ptr %10, i64 -16
  %37 = load i64, ptr %36, align 8, !tbaa !18
  %38 = and i64 %37, 140737488355327
  %39 = inttoptr i64 %38 to ptr
  %40 = getelementptr inbounds nuw i8, ptr %39, i64 10
  %41 = load i8, ptr %40, align 2, !tbaa !18
  %42 = add i8 %41, 92
  %or.cond = icmp ult i8 %42, 16
  br i1 %or.cond, label %43, label %54

43:                                               ; preds = %32
  %44 = getelementptr inbounds nuw i8, ptr %35, i64 8
  store ptr %44, ptr %9, align 8, !tbaa !15
  %45 = getelementptr inbounds nuw i8, ptr %0, i64 40
  store ptr %11, ptr %45, align 8, !tbaa !20
  %46 = getelementptr inbounds i8, ptr %10, i64 -24
  %47 = load i64, ptr %46, align 8, !tbaa !18
  %48 = getelementptr inbounds nuw i8, ptr %0, i64 80
  %49 = load ptr, ptr %48, align 8, !tbaa !9
  %50 = ptrtoint ptr %49 to i64
  %51 = and i64 %50, -4
  %52 = inttoptr i64 %51 to ptr
  %53 = getelementptr inbounds nuw i8, ptr %52, i64 24
  store i64 %47, ptr %53, align 8, !tbaa !67
  br label %54

54:                                               ; preds = %28, %15, %43, %32, %25, %2
  %.023 = phi ptr [ null, %2 ], [ %11, %15 ], [ %11, %43 ], [ %11, %32 ], [ %11, %25 ], [ null, %28 ]
  %.0 = phi ptr [ null, %2 ], [ %24, %15 ], [ %35, %43 ], [ %35, %32 ], [ null, %25 ], [ %11, %28 ]
  tail call void @lj_debug_addloc(ptr noundef nonnull %0, ptr noundef %1, ptr noundef %.0, ptr noundef %.023) #15
  tail call void @lj_err_run(ptr noundef nonnull %0) #19
  unreachable
}